target datalayout = "e-m:e-p270:32:32-p271:32:32-p272:64:64-i64:64-i128:128-f80:128-n8:16:32:64-S128"
target triple = "x86_64-pc-linux-gnu"

%struct._xmlNode = type { ptr, i32, ptr, ptr, ptr, ptr, ptr, ptr, ptr, ptr, ptr, ptr, ptr, ptr, i16, i16 }

@.str.155 = private unnamed_addr constant [8 x i8] c"default\00", align 1
@.str.156 = private unnamed_addr constant [10 x i8] c"default%d\00", align 1

; Function Attrs: nounwind uwtable
define hidden ptr @dom_get_ns_resolve_prefix_conflict(ptr noundef %0, ptr noundef %1) #0 {
  %3 = alloca ptr, align 8
  %4 = alloca ptr, align 8
  %5 = alloca ptr, align 8
  %6 = alloca ptr, align 8
  %7 = alloca [50 x i8], align 16
  %8 = alloca i32, align 4
  %9 = alloca ptr, align 8
  store ptr %0, ptr %4, align 8
  store ptr %1, ptr %5, align 8
  %10 = load ptr, ptr %4, align 8
  %11 = icmp ne ptr %10, null
  call void @llvm.assume(i1 %11)
  %12 = load ptr, ptr %4, align 8
  %13 = getelementptr inbounds %struct._xmlNode, ptr %12, i32 0, i32 8
  %14 = load ptr, ptr %13, align 8
  store ptr %14, ptr %6, align 8
  %15 = load ptr, ptr %6, align 8
  %16 = icmp eq ptr %15, null
  %17 = xor i1 %16, true
  %18 = xor i1 %17, true
  %19 = zext i1 %18 to i32
  %20 = sext i32 %19 to i64
  %21 = icmp ne i64 %20, 0
  br i1 %21, label %22, label %23

22:                                               ; preds = %2
  store ptr null, ptr %3, align 8
  br label %51

23:                                               ; preds = %2
  store i32 1, ptr %8, align 4
  %24 = getelementptr inbounds [50 x i8], ptr %7, i64 0, i64 0
  %25 = call i32 (ptr, i64, ptr, ...) @ap_php_snprintf(ptr noundef %24, i64 noundef 50, ptr noundef @.str.155)
  %26 = load ptr, ptr %6, align 8
  %27 = load ptr, ptr %4, align 8
  %28 = getelementptr inbounds [50 x i8], ptr %7, i64 0, i64 0
  %29 = call ptr @xmlSearchNs(ptr noundef %26, ptr noundef %27, ptr noundef %28)
  store ptr %29, ptr %9, align 8
  br label %30

30:                                               ; preds = %37, %23
  %31 = load ptr, ptr %9, align 8
  %32 = icmp ne ptr %31, null
  br i1 %32, label %33, label %46

33:                                               ; preds = %30
  %34 = load i32, ptr %8, align 4
  %35 = icmp sgt i32 %34, 1000
  br i1 %35, label %36, label %37

36:                                               ; preds = %33
  store ptr null, ptr %3, align 8
  br label %51

37:                                               ; preds = %33
  %38 = getelementptr inbounds [50 x i8], ptr %7, i64 0, i64 0
  %39 = load i32, ptr %8, align 4
  %40 = add nsw i32 %39, 1
  store i32 %40, ptr %8, align 4
  %41 = call i32 (ptr, i64, ptr, ...) @ap_php_snprintf(ptr noundef %38, i64 noundef 50, ptr noundef @.str.156, i32 noundef %39)
  %42 = load ptr, ptr %6, align 8
  %43 = load ptr, ptr %4, align 8
  %44 = getelementptr inbounds [50 x i8], ptr %7, i64 0, i64 0
  %45 = call ptr @xmlSearchNs(ptr noundef %42, ptr noundef %43, ptr noundef %44)
  store ptr %45, ptr %9, align 8
  br label %30

46:                                               ; preds = %30
  %47 = load ptr, ptr %4, align 8
  %48 = load ptr, ptr %5, align 8
  %49 = getelementptr inbounds [50 x i8], ptr %7, i64 0, i64 0
  %50 = call ptr @xmlNewNs(ptr noundef %47, ptr noundef %48, ptr noundef %49)
  store ptr %50, ptr %3, align 8
  br label %51

51:                                               ; preds = %46, %36, %22
  %52 = load ptr, ptr %3, align 8
  ret ptr %52
}

; Function Attrs: nounwind uwtable
define hidden ptr @dom_get_ns_unchecked(ptr noundef %0, ptr noundef %1, ptr noundef %2) #0 {
  %4 = alloca ptr, align 8
  %5 = alloca ptr, align 8
  %6 = alloca ptr, align 8
  %7 = alloca ptr, align 8
  %8 = alloca ptr, align 8
  store ptr %0, ptr %5, align 8
  store ptr %1, ptr %6, align 8
  store ptr %2, ptr %7, align 8
  %9 = load ptr, ptr %5, align 8
  %10 = load ptr, ptr %6, align 8
  %11 = load ptr, ptr %7, align 8
  %12 = call ptr @xmlNewNs(ptr noundef %9, ptr noundef %10, ptr noundef %11)
  store ptr %12, ptr %8, align 8
  %13 = load ptr, ptr %8, align 8
  %14 = icmp eq ptr %13, null
  %15 = xor i1 %14, true
  %16 = xor i1 %15, true
  %17 = zext i1 %16 to i32
  %18 = sext i32 %17 to i64
  %19 = icmp ne i64 %18, 0
  br i1 %19, label %20, label %24

20:                                               ; preds = %3
  %21 = load ptr, ptr %5, align 8
  %22 = load ptr, ptr %6, align 8
  %23 = call ptr @dom_get_ns_resolve_prefix_conflict(ptr noundef %21, ptr noundef %22)
  store ptr %23, ptr %4, align 8
  br label %26

24:                                               ; preds = %3
  %25 = load ptr, ptr %8, align 8
  store ptr %25, ptr %4, align 8
  br label %26

26:                                               ; preds = %24, %20
  %27 = load ptr, ptr %4, align 8
  ret ptr %27
}