; Function Attrs: nounwind uwtable
define hidden ptr @dom_get_ns_unchecked(ptr noundef %0, ptr noundef %1, ptr noundef %2) local_unnamed_addr #1 {
  %4 = alloca [50 x i8], align 16
  %5 = tail call ptr @xmlNewNs(ptr noundef %0, ptr noundef %1, ptr noundef %2) #16
  %6 = icmp eq ptr %5, null
  br i1 %6, label %7, label %20

7:                                                ; preds = %3
  call void @llvm.lifetime.start.p0(i64 50, ptr nonnull %4)
  %8 = icmp ne ptr %0, null
  tail call void @llvm.assume(i1 %8)
  %9 = getelementptr inbounds i8, ptr %0, i64 64
  %10 = load ptr, ptr %9, align 8
  %11 = icmp eq ptr %10, null
  br i1 %11, label %dom_get_ns_resolve_prefix_conflict.exit, label %12

12:                                               ; preds = %7
  %13 = call i32 (ptr, i64, ptr, ...) @ap_php_snprintf(ptr noundef nonnull %4, i64 noundef 50, ptr noundef nonnull @.str.155) #16
  %14 = call ptr @xmlSearchNs(ptr noundef nonnull %10, ptr noundef nonnull %0, ptr noundef nonnull %4) #16
  %.not15.i = icmp eq ptr %14, null
  br i1 %.not15.i, label %._crit_edge.i, label %.lr.ph.i

.lr.ph.i:                                         ; preds = %12, %15
  %.01216.i = phi i32 [ %16, %15 ], [ 1, %12 ]
  %exitcond.i = icmp eq i32 %.01216.i, 1001
  br i1 %exitcond.i, label %dom_get_ns_resolve_prefix_conflict.exit, label %15

15:                                               ; preds = %.lr.ph.i
  %16 = add nuw nsw i32 %.01216.i, 1
  %17 = call i32 (ptr, i64, ptr, ...) @ap_php_snprintf(ptr noundef nonnull %4, i64 noundef 50, ptr noundef nonnull @.str.156, i32 noundef %.01216.i) #16
  %18 = call ptr @xmlSearchNs(ptr noundef nonnull %10, ptr noundef nonnull %0, ptr noundef nonnull %4) #16
  %.not.i = icmp eq ptr %18, null
  br i1 %.not.i, label %._crit_edge.i, label %.lr.ph.i

._crit_edge.i:                                    ; preds = %15, %12
  %19 = call ptr @xmlNewNs(ptr noundef nonnull %0, ptr noundef %1, ptr noundef nonnull %4) #16
  br label %dom_get_ns_resolve_prefix_conflict.exit

dom_get_ns_resolve_prefix_conflict.exit:          ; preds = %.lr.ph.i, %7, %._crit_edge.i
  %.013.i = phi ptr [ %19, %._crit_edge.i ], [ null, %7 ], [ null, %.lr.ph.i ]
  call void @llvm.lifetime.end.p0(i64 50, ptr nonnull %4)
  br label %20

20:                                               ; preds = %3, %dom_get_ns_resolve_prefix_conflict.exit
  %.0 = phi ptr [ %.013.i, %dom_get_ns_resolve_prefix_conflict.exit ], [ %5, %3 ]
  ret ptr %.0
}